target datalayout = "e-m:e-p270:32:32-p271:32:32-p272:64:64-i64:64-i128:128-f80:128-n8:16:32:64-S128"
target triple = "x86_64-pc-linux-gnu"

%"class.std::__cxx11::basic_string" = type { %"struct.std::__cxx11::basic_string<char>::_Alloc_hider", i64, %union.anon }
%"struct.std::__cxx11::basic_string<char>::_Alloc_hider" = type { ptr }
%union.anon = type { i64, [8 x i8] }

; Function Attrs: mustprogress uwtable
define dso_local noundef zeroext i1 @_ZN18cmParsePHPCoverage7ReadIntERSiRi(ptr noundef nonnull align 8 dereferenceable(16) %0, ptr noundef nonnull align 8 dereferenceable(16) %1, ptr noundef nonnull align 4 dereferenceable(4) %2) #5 align 2 personality ptr @__gxx_personality_v0 {
  %4 = alloca ptr, align 8
  %5 = alloca ptr, align 8
  %6 = alloca ptr, align 8
  %7 = alloca %"class.std::__cxx11::basic_string", align 8
  %8 = alloca i8, align 1
  %9 = alloca ptr, align 8
  %10 = alloca i32, align 4
  store ptr %0, ptr %4, align 8
  store ptr %1, ptr %5, align 8
  store ptr %2, ptr %6, align 8
  call void @_ZNSt7__cxx1112basic_stringIcSt11char_traitsIcESaIcEEC1Ev(ptr noundef nonnull align 8 dereferenceable(32) %7) #3
  store i8 0, ptr %8, align 1
  br label %11

11:                                               ; preds = %34, %3
  %12 = load ptr, ptr %5, align 8
  %13 = invoke noundef nonnull align 8 dereferenceable(16) ptr @_ZNSi3getERc(ptr noundef nonnull align 8 dereferenceable(16) %12, ptr noundef nonnull align 1 dereferenceable(1) %8)
          to label %14 unwind label %35

14:                                               ; preds = %11
  %15 = load ptr, ptr %13, align 8
  %16 = getelementptr i8, ptr %15, i64 -24
  %17 = load i64, ptr %16, align 8
  %18 = getelementptr inbounds i8, ptr %13, i64 %17
  %19 = invoke noundef zeroext i1 @_ZNKSt9basic_iosIcSt11char_traitsIcEEcvbEv(ptr noundef nonnull align 8 dereferenceable(264) %18)
          to label %20 unwind label %35

20:                                               ; preds = %14
  br i1 %19, label %21, label %29

21:                                               ; preds = %20
  %22 = load i8, ptr %8, align 1
  %23 = sext i8 %22 to i32
  %24 = icmp ne i32 %23, 58
  br i1 %24, label %25, label %29

25:                                               ; preds = %21
  %26 = load i8, ptr %8, align 1
  %27 = sext i8 %26 to i32
  %28 = icmp ne i32 %27, 59
  br label %29

29:                                               ; preds = %25, %21, %20
  %30 = phi i1 [ false, %21 ], [ false, %20 ], [ %28, %25 ]
  br i1 %30, label %31, label %39

31:                                               ; preds = %29
  %32 = load i8, ptr %8, align 1
  %33 = invoke noundef nonnull align 8 dereferenceable(32) ptr @_ZNSt7__cxx1112basic_stringIcSt11char_traitsIcESaIcEEpLEc(ptr noundef nonnull align 8 dereferenceable(32) %7, i8 noundef signext %32)
          to label %34 unwind label %35

34:                                               ; preds = %31
  br label %11, !llvm.loop !9

35:                                               ; preds = %31, %14, %11
  %36 = landingpad { ptr, i32 }
          cleanup
  %37 = extractvalue { ptr, i32 } %36, 0
  store ptr %37, ptr %9, align 8
  %38 = extractvalue { ptr, i32 } %36, 1
  store i32 %38, ptr %10, align 4
  call void @_ZNSt7__cxx1112basic_stringIcSt11char_traitsIcESaIcEED1Ev(ptr noundef nonnull align 8 dereferenceable(32) %7) #3
  br label %43

39:                                               ; preds = %29
  %40 = call noundef ptr @_ZNKSt7__cxx1112basic_stringIcSt11char_traitsIcESaIcEE5c_strEv(ptr noundef nonnull align 8 dereferenceable(32) %7) #3
  %41 = call i32 @atoi(ptr noundef %40) #13
  %42 = load ptr, ptr %6, align 8
  store i32 %41, ptr %42, align 4
  call void @_ZNSt7__cxx1112basic_stringIcSt11char_traitsIcESaIcEED1Ev(ptr noundef nonnull align 8 dereferenceable(32) %7) #3
  ret i1 true

43:                                               ; preds = %35
  %44 = load ptr, ptr %9, align 8
  %45 = load i32, ptr %10, align 4
  %46 = insertvalue { ptr, i32 } poison, ptr %44, 0
  %47 = insertvalue { ptr, i32 } %46, i32 %45, 1
  resume { ptr, i32 } %47
}